;
; File generated by cc65 v 2.18 - N/A
;
	.fopt		compiler,"cc65 v 2.18 - N/A"
	.setcpu		"6502"
	.smart		on
	.autoimport	on
	.case		on
	.debuginfo	off
	.importzp	sp, sreg, regsave, regbank
	.importzp	tmp1, tmp2, tmp3, tmp4, ptr1, ptr2, ptr3, ptr4
	.macpack	longbranch
	.forceimport	__STARTUP__
	.import		_pal_bg
	.import		_pal_spr
	.import		_ppu_wait_nmi
	.import		_ppu_off
	.import		_ppu_on_all
	.import		_ppu_mask
	.import		_oam_clear
	.import		_oam_meta_spr
	.import		_sfx_play
	.import		_bank_spr
	.import		_rand8
	.import		_set_vram_buffer
	.import		_zap_shoot
	.import		_zap_read
	.export		_pad2_zapper
	.export		_zapper_ready
	.export		_hit_detected
	.export		_game_mode
	.export		_circle_y_direction
	.export		_circle_x_direction
	.export		_circle_color
	.export		_circle_x
	.export		_circle_y
	.export		_circle_x_speed
	.export		_circle_y_speed
	.export		_circle_wait
	.export		_temp1
	.export		_temp2
	.export		_move_circle
	.export		_draw_circle
	.export		_initialize
	.export		_GiantWhiteCircle
	.export		_pal1
	.export		_pal2
	.export		_main

.segment	"RODATA"

_GiantWhiteCircle:
	.byte	$08
	.byte	$00
	.byte	$09
	.byte	$00
	.byte	$10
	.byte	$00
	.byte	$0A
	.byte	$00
	.byte	$18
	.byte	$00
	.byte	$0B
	.byte	$00
	.byte	$20
	.byte	$00
	.byte	$0C
	.byte	$00
	.byte	$28
	.byte	$00
	.byte	$0D
	.byte	$00
	.byte	$30
	.byte	$00
	.byte	$0E
	.byte	$00
	.byte	$00
	.byte	$08
	.byte	$18
	.byte	$00
	.byte	$08
	.byte	$08
	.byte	$19
	.byte	$00
	.byte	$10
	.byte	$08
	.byte	$1A
	.byte	$00
	.byte	$18
	.byte	$08
	.byte	$1B
	.byte	$00
	.byte	$20
	.byte	$08
	.byte	$1C
	.byte	$00
	.byte	$28
	.byte	$08
	.byte	$1D
	.byte	$00
	.byte	$30
	.byte	$08
	.byte	$1E
	.byte	$00
	.byte	$38
	.byte	$08
	.byte	$1F
	.byte	$00
	.byte	$00
	.byte	$10
	.byte	$28
	.byte	$00
	.byte	$08
	.byte	$10
	.byte	$29
	.byte	$00
	.byte	$10
	.byte	$10
	.byte	$2A
	.byte	$00
	.byte	$18
	.byte	$10
	.byte	$2B
	.byte	$00
	.byte	$20
	.byte	$10
	.byte	$2C
	.byte	$00
	.byte	$28
	.byte	$10
	.byte	$2D
	.byte	$00
	.byte	$30
	.byte	$10
	.byte	$2E
	.byte	$00
	.byte	$38
	.byte	$10
	.byte	$2F
	.byte	$00
	.byte	$00
	.byte	$18
	.byte	$38
	.byte	$00
	.byte	$08
	.byte	$18
	.byte	$39
	.byte	$00
	.byte	$10
	.byte	$18
	.byte	$3A
	.byte	$00
	.byte	$18
	.byte	$18
	.byte	$3B
	.byte	$00
	.byte	$20
	.byte	$18
	.byte	$3C
	.byte	$00
	.byte	$28
	.byte	$18
	.byte	$3D
	.byte	$00
	.byte	$30
	.byte	$18
	.byte	$3E
	.byte	$00
	.byte	$38
	.byte	$18
	.byte	$3F
	.byte	$00
	.byte	$00
	.byte	$20
	.byte	$48
	.byte	$00
	.byte	$08
	.byte	$20
	.byte	$49
	.byte	$00
	.byte	$10
	.byte	$20
	.byte	$4A
	.byte	$00
	.byte	$18
	.byte	$20
	.byte	$4B
	.byte	$00
	.byte	$20
	.byte	$20
	.byte	$4C
	.byte	$00
	.byte	$28
	.byte	$20
	.byte	$4D
	.byte	$00
	.byte	$30
	.byte	$20
	.byte	$4E
	.byte	$00
	.byte	$38
	.byte	$20
	.byte	$4F
	.byte	$00
	.byte	$00
	.byte	$28
	.byte	$58
	.byte	$00
	.byte	$08
	.byte	$28
	.byte	$59
	.byte	$00
	.byte	$10
	.byte	$28
	.byte	$5A
	.byte	$00
	.byte	$18
	.byte	$28
	.byte	$5B
	.byte	$00
	.byte	$20
	.byte	$28
	.byte	$5C
	.byte	$00
	.byte	$28
	.byte	$28
	.byte	$5D
	.byte	$00
	.byte	$30
	.byte	$28
	.byte	$5E
	.byte	$00
	.byte	$38
	.byte	$28
	.byte	$5F
	.byte	$00
	.byte	$00
	.byte	$30
	.byte	$68
	.byte	$00
	.byte	$08
	.byte	$30
	.byte	$69
	.byte	$00
	.byte	$10
	.byte	$30
	.byte	$6A
	.byte	$00
	.byte	$18
	.byte	$30
	.byte	$6B
	.byte	$00
	.byte	$20
	.byte	$30
	.byte	$6C
	.byte	$00
	.byte	$28
	.byte	$30
	.byte	$6D
	.byte	$00
	.byte	$30
	.byte	$30
	.byte	$6E
	.byte	$00
	.byte	$38
	.byte	$30
	.byte	$6F
	.byte	$00
	.byte	$08
	.byte	$38
	.byte	$79
	.byte	$00
	.byte	$10
	.byte	$38
	.byte	$7A
	.byte	$00
	.byte	$18
	.byte	$38
	.byte	$7B
	.byte	$00
	.byte	$20
	.byte	$38
	.byte	$7C
	.byte	$00
	.byte	$28
	.byte	$38
	.byte	$7D
	.byte	$00
	.byte	$30
	.byte	$38
	.byte	$7E
	.byte	$00
	.byte	$80
_pal1:
	.byte	$0F
	.byte	$00
	.byte	$10
	.byte	$30
	.byte	$00
	.byte	$00
	.byte	$00
	.byte	$00
	.byte	$00
	.byte	$00
	.byte	$00
	.byte	$00
	.byte	$00
	.byte	$00
	.byte	$00
	.byte	$00
_pal2:
	.byte	$0F
	.byte	$12
	.byte	$22
	.byte	$30
	.byte	$0F
	.byte	$15
	.byte	$25
	.byte	$30
	.byte	$0F
	.byte	$17
	.byte	$27
	.byte	$30
	.byte	$0F
	.byte	$19
	.byte	$29
	.byte	$30

.segment	"BSS"

.segment	"ZEROPAGE"
_pad2_zapper:
	.res	1,$00
_zapper_ready:
	.res	1,$00
_hit_detected:
	.res	1,$00
_game_mode:
	.res	1,$00
_circle_y_direction:
	.res	1,$00
_circle_x_direction:
	.res	1,$00
_circle_color:
	.res	1,$00
_circle_x:
	.res	2,$00
_circle_y:
	.res	2,$00
_circle_x_speed:
	.res	2,$00
_circle_y_speed:
	.res	2,$00
_circle_wait:
	.res	1,$00
_temp1:
	.res	1,$00
_temp2:
	.res	1,$00

; ---------------------------------------------------------------
; void __near__ move_circle (void)
; ---------------------------------------------------------------

.segment	"CODE"

.proc	_move_circle: near

.segment	"CODE"

;
; if (circle_x >= 0xB500)
;
	lda     _circle_x
	cmp     #$00
	lda     _circle_x+1
	sbc     #$B5
	bcc     L015F
;
; circle_x_direction = 1;
;
	lda     #$01
	sta     _circle_x_direction
;
; if (circle_x <= 0x0100)
;
L015F:	lda     _circle_x+1
	cmp     #$01
	bne     L0165
	lda     _circle_x
	cmp     #$01
L0165:	bcs     L0163
;
; circle_x_direction = 0;
;
	lda     #$00
	sta     _circle_x_direction
;
; if (circle_x_direction)
;
L0163:	lda     _circle_x_direction
	beq     L0168
;
; circle_x += circle_x_speed;
;
	lda     _circle_x_speed
	clc
	adc     _circle_x
	sta     _circle_x
	lda     _circle_x_speed+1
;
; else
;
	jmp     L018E
;
; circle_x -= circle_x_speed;
;
L0168:	lda     _circle_x_speed
	eor     #$FF
	sec
	adc     _circle_x
	sta     _circle_x
	lda     _circle_x_speed+1
	eor     #$FF
L018E:	adc     _circle_x+1
	sta     _circle_x+1
;
; if (circle_y >= 0x9000)
;
	lda     _circle_y
	cmp     #$00
	lda     _circle_y+1
	sbc     #$90
	bcc     L016F
;
; circle_y_direction = 1;
;
	lda     #$01
	sta     _circle_y_direction
;
; if (circle_y <= 0x0100)
;
L016F:	lda     _circle_y+1
	cmp     #$01
	bne     L0175
	lda     _circle_y
	cmp     #$01
L0175:	bcs     L0173
;
; circle_y_direction = 0;
;
	lda     #$00
	sta     _circle_y_direction
;
; if (circle_y_direction)
;
L0173:	lda     _circle_y_direction
	beq     L0178
;
; circle_y += circle_y_speed;
;
	lda     _circle_y_speed
	clc
	adc     _circle_y
	sta     _circle_y
	lda     _circle_y_speed+1
;
; else
;
	jmp     L018F
;
; circle_y -= circle_y_speed;
;
L0178:	lda     _circle_y_speed
	eor     #$FF
	sec
	adc     _circle_y
	sta     _circle_y
	lda     _circle_y_speed+1
	eor     #$FF
L018F:	adc     _circle_y+1
	sta     _circle_y+1
;
; }
;
	rts

.endproc

; ---------------------------------------------------------------
; void __near__ draw_circle (void)
; ---------------------------------------------------------------

.segment	"CODE"

.proc	_draw_circle: near

.segment	"CODE"

;
; temp1 = high_byte(circle_x);
;
	lda     _circle_x+1
	sta     _temp1
;
; temp2 = high_byte(circle_y);
;
	lda     _circle_y+1
	sta     _temp2
;
; oam_meta_spr(temp1, temp2, GiantWhiteCircle);
;
	jsr     decsp2
	lda     _temp1
	ldy     #$01
	sta     (sp),y
	lda     _temp2
	dey
	sta     (sp),y
	lda     #<(_GiantWhiteCircle)
	ldx     #>(_GiantWhiteCircle)
	jmp     _oam_meta_spr

.endproc

; ---------------------------------------------------------------
; void __near__ initialize (void)
; ---------------------------------------------------------------

.segment	"CODE"

.proc	_initialize: near

.segment	"CODE"

;
; game_mode = MODE_GAME;
;
	lda     #$01
	sta     _game_mode
;
; circle_color = (circle_color + 1) & 1; // 0 or 1
;
	lda     _circle_color
	clc
	adc     #$01
	and     #$01
	sta     _circle_color
;
; temp1 = rand8();
;
	jsr     _rand8
	sta     _temp1
;
; circle_x = (temp1 << 7) + 0x4000; // should give 0x4000-0xbf80
;
	ldx     #$00
	lda     _temp1
	jsr     aslax4
	jsr     aslax3
	sta     _circle_x
	txa
	clc
	adc     #$40
	sta     _circle_x+1
;
; circle_y = 0x7000;        // int
;
	ldx     #$70
	lda     #$00
	sta     _circle_y
	stx     _circle_y+1
;
; temp1 = rand8();
;
	jsr     _rand8
	sta     _temp1
;
; circle_x_speed = ((temp1 & 0x1f) - 0x0f) << 4;
;
	ldx     #$00
	and     #$1F
	sec
	sbc     #$0F
	bcs     L015B
	dex
L015B:	jsr     shlax4
	sta     _circle_x_speed
	stx     _circle_x_speed+1
;
; circle_y_speed = 0xff00;
;
	ldx     #$FF
	lda     #$00
	sta     _circle_y_speed
	stx     _circle_y_speed+1
;
; }
;
	rts

.endproc

; ---------------------------------------------------------------
; void __near__ main (void)
; ---------------------------------------------------------------

.segment	"CODE"

.proc	_main: near

.segment	"CODE"

;
; ppu_off(); // screen off
;
	jsr     _ppu_off
;
; pal_bg(pal1);  // load the palette
;
	lda     #<(_pal1)
	ldx     #>(_pal1)
	jsr     _pal_bg
;
; pal_spr(pal2); // load the palette
;
	lda     #<(_pal2)
	ldx     #>(_pal2)
	jsr     _pal_spr
;
; bank_spr(1); // sprites use the 2nd tileset
;
	lda     #$01
	jsr     _bank_spr
;
; ppu_wait_nmi(); // wait
;
	jsr     _ppu_wait_nmi
;
; set_vram_buffer(); // points ppu update to vram_buffer, do this at least once
;
	jsr     _set_vram_buffer
;
; ppu_on_all(); // turn on screen
;
	jsr     _ppu_on_all
;
; initialize();
;
	jsr     _initialize
;
; ppu_wait_nmi(); // wait till beginning of the frame
;
L0120:	jsr     _ppu_wait_nmi
;
; oam_clear();
;
	jsr     _oam_clear
;
; zapper_ready = pad2_zapper ^ 1; // XOR last frame, make sure not held down still
;
	lda     _pad2_zapper
	eor     #$01
	sta     _zapper_ready
;
; pad2_zapper = zap_shoot(1); // controller slot 2
;
	lda     #$01
	jsr     _zap_shoot
	sta     _pad2_zapper
;
; if (game_mode == MODE_GAME)
;
	lda     _game_mode
	cmp     #$01
	bne     L012B
;
; move_circle();
;
	jsr     _move_circle
;
; draw_circle();
;
	jsr     _draw_circle
;
; if ((pad2_zapper) && (zapper_ready))
;
	lda     _pad2_zapper
	beq     L0120
	lda     _zapper_ready
	beq     L0120
;
; sfx_play(0, 0);
;
	lda     #$00
	jsr     pusha
	jsr     _sfx_play
;
; oam_clear();
;
	jsr     _oam_clear
;
; ppu_mask(0x16); // BG off, won't happen till NEXT frame
;
	lda     #$16
	jsr     _ppu_mask
;
; ppu_wait_nmi(); // wait till the top of the next frame
;
	jsr     _ppu_wait_nmi
;
; oam_clear();  // clear the NEXT frame
;
	jsr     _oam_clear
;
; draw_circle(); // draw a star on the NEXT frame
;
	jsr     _draw_circle
;
; ppu_mask(0x1e); // bg on, won't happen till NEXT frame
;
	lda     #$1E
	jsr     _ppu_mask
;
; hit_detected = zap_read(1); // look for light in zapper, port 2
;
	lda     #$01
	jsr     _zap_read
	sta     _hit_detected
;
; else if (circle_wait)
;
	jmp     L0120
L012B:	lda     _circle_wait
	beq     L0120
;
; --circle_wait;
;
	dec     _circle_wait
;
; while (1)
;
	jmp     L0120

.endproc

